     1 00000000                                 [FORMAT "WCOFF"]
     2 00000000                                 [INSTRSET "i486p"]
     3 00000000                                 [OPTIMIZE 1]
     4 00000000                                 [OPTION 1]
     5 00000000                                 [BITS 32]
     6 00000000                                 	EXTERN	_bootInfo
     7 00000000                                 	EXTERN	_init_screen
     8 00000000                                 	EXTERN	_init_palette
     9 00000000                                 	EXTERN	_init_gdtidt
    10 00000000                                 	EXTERN	_init_pic
    11 00000000                                 	EXTERN	_io_sti
    12 00000000                                 	EXTERN	_memtest
    13 00000000                                 	EXTERN	_sprintf
    14 00000000                                 	EXTERN	_putStr
    15 00000000                                 	EXTERN	_io_out8
    16 00000000                                 [FILE "main.c"]
    17                                          [SECTION .data]
    18 00000000                                 LC0:
    19 00000000 6D 65 6D 6F 72 79 20 25 64 4D   	DB	"memory %dMB",0x00
       0000000A 42 00 
    20                                          [SECTION .text]
    21 00000000                                 	GLOBAL	_init
    22 00000000                                 _init:
    23 00000000 55                              	PUSH	EBP
    24 00000001 89 E5                           	MOV	EBP,ESP
    25 00000003 53                              	PUSH	EBX
    26 00000004 83 EC 28                        	SUB	ESP,40
    27 00000007 8B 15 [00000000]                	MOV	EDX,DWORD [_bootInfo]
    28 0000000D 8D 5D DC                        	LEA	EBX,DWORD [-36+EBP]
    29 00000010 0F BF 42 06                     	MOVSX	EAX,WORD [6+EDX]
    30 00000014 50                              	PUSH	EAX
    31 00000015 0F BF 42 04                     	MOVSX	EAX,WORD [4+EDX]
    32 00000019 50                              	PUSH	EAX
    33 0000001A FF 72 08                        	PUSH	DWORD [8+EDX]
    34 0000001D E8 [00000000]                   	CALL	_init_screen
    35 00000022 E8 [00000000]                   	CALL	_init_palette
    36 00000027 E8 [00000000]                   	CALL	_init_gdtidt
    37 0000002C E8 [00000000]                   	CALL	_init_pic
    38 00000031 E8 [00000000]                   	CALL	_io_sti
    39 00000036 68 BFFFFFFF                     	PUSH	-1073741825
    40 0000003B 68 00400000                     	PUSH	4194304
    41 00000040 E8 [00000000]                   	CALL	_memtest
    42 00000045 B9 00100000                     	MOV	ECX,1048576
    43 0000004A 99                              	CDQ
    44 0000004B F7 F9                           	IDIV	ECX
    45 0000004D 50                              	PUSH	EAX
    46 0000004E 68 [00000000]                   	PUSH	LC0
    47 00000053 53                              	PUSH	EBX
    48 00000054 E8 [00000000]                   	CALL	_sprintf
    49 00000059 8B 0D [00000000]                	MOV	ECX,DWORD [_bootInfo]
    50 0000005F 83 C4 20                        	ADD	ESP,32
    51 00000062 53                              	PUSH	EBX
    52 00000063 BB 00000002                     	MOV	EBX,2
    53 00000068 6A 00                           	PUSH	0
    54 0000006A 66 8B 41 06                     	MOV	AX,WORD [6+ECX]
    55 0000006E 66 99                           	CWD
    56 00000070 66 F7 FB                        	IDIV	BX
    57 00000073 98                              	CWDE
    58 00000074 50                              	PUSH	EAX
    59 00000075 66 8B 41 04                     	MOV	AX,WORD [4+ECX]
    60 00000079 66 99                           	CWD
    61 0000007B 66 F7 FB                        	IDIV	BX
    62 0000007E 98                              	CWDE
    63 0000007F 50                              	PUSH	EAX
    64 00000080 0F BF 41 04                     	MOVSX	EAX,WORD [4+ECX]
    65 00000084 50                              	PUSH	EAX
    66 00000085 FF 71 08                        	PUSH	DWORD [8+ECX]
    67 00000088 E8 [00000000]                   	CALL	_putStr
    68 0000008D 68 000000F9                     	PUSH	249
    69 00000092 6A 21                           	PUSH	33
    70 00000094 E8 [00000000]                   	CALL	_io_out8
    71 00000099 83 C4 20                        	ADD	ESP,32
    72 0000009C 68 000000EF                     	PUSH	239
    73 000000A1 68 000000A1                     	PUSH	161
    74 000000A6 E8 [00000000]                   	CALL	_io_out8
    75 000000AB 8B 5D FC                        	MOV	EBX,DWORD [-4+EBP]
    76 000000AE C9                              	LEAVE
    77 000000AF C3                              	RET
    78 000000B0                                 	GLOBAL	_HariMain
    79 000000B0                                 _HariMain:
    80 000000B0 55                              	PUSH	EBP
    81 000000B1 89 E5                           	MOV	EBP,ESP
    82 000000B3 83 EC 20                        	SUB	ESP,32
    83 000000B6 E8 FFFFFF45                     	CALL	_init
    84 000000BB                                 L3:
    85 000000BB EB FE                           	JMP	L3
    86 000000BD                                 	GLOBAL	_fifo
    87                                          [SECTION .data]
    88 0000000C                                 	ALIGNB	4
    89 0000000C                                 _fifo:
    90 0000000C 00 00 00 00                     	RESB	4
